target datalayout = "e-m:e-p270:32:32-p271:32:32-p272:64:64-i64:64-i128:128-f80:128-n8:16:32:64-S128"
target triple = "x86_64-pc-linux-gnu"

%struct.UBiDi = type { ptr, ptr, i32, i32, i32, i32, i32, i32, i32, i32, i32, ptr, ptr, ptr, ptr, ptr, ptr, i8, i8, ptr, ptr, i8, i32, i32, i8, i8, i8, ptr, i32, ptr, i32, ptr, i32, i32, i32, i32, i32, ptr, [10 x %struct.Para], i32, ptr, [1 x %struct.Run], i32, ptr, [5 x %struct.Isolate], %struct.InsertPoints, i32, ptr, ptr }
%struct.Para = type { i32, i32 }
%struct.Run = type { i32, i32, i32 }
%struct.Isolate = type { i32, i32, i32, i16 }
%struct.InsertPoints = type { i32, i32, i32, i32, ptr }

; Function Attrs: mustprogress nounwind uwtable
define ptr @ubidi_getText_77(ptr noundef %0) #7 {
  %2 = alloca ptr, align 8
  %3 = alloca ptr, align 8
  store ptr %0, ptr %3, align 8, !tbaa !11
  %4 = load ptr, ptr %3, align 8, !tbaa !11
  %5 = icmp ne ptr %4, null
  br i1 %5, label %6, label %31

6:                                                ; preds = %1
  %7 = load ptr, ptr %3, align 8, !tbaa !11
  %8 = getelementptr inbounds nuw %struct.UBiDi, ptr %7, i32 0, i32 0
  %9 = load ptr, ptr %8, align 8, !tbaa !33
  %10 = load ptr, ptr %3, align 8, !tbaa !11
  %11 = icmp eq ptr %9, %10
  br i1 %11, label %27, label %12

12:                                               ; preds = %6
  %13 = load ptr, ptr %3, align 8, !tbaa !11
  %14 = getelementptr inbounds nuw %struct.UBiDi, ptr %13, i32 0, i32 0
  %15 = load ptr, ptr %14, align 8, !tbaa !33
  %16 = icmp ne ptr %15, null
  br i1 %16, label %17, label %31

17:                                               ; preds = %12
  %18 = load ptr, ptr %3, align 8, !tbaa !11
  %19 = getelementptr inbounds nuw %struct.UBiDi, ptr %18, i32 0, i32 0
  %20 = load ptr, ptr %19, align 8, !tbaa !33
  %21 = getelementptr inbounds nuw %struct.UBiDi, ptr %20, i32 0, i32 0
  %22 = load ptr, ptr %21, align 8, !tbaa !33
  %23 = load ptr, ptr %3, align 8, !tbaa !11
  %24 = getelementptr inbounds nuw %struct.UBiDi, ptr %23, i32 0, i32 0
  %25 = load ptr, ptr %24, align 8, !tbaa !33
  %26 = icmp eq ptr %22, %25
  br i1 %26, label %27, label %31

27:                                               ; preds = %17, %6
  %28 = load ptr, ptr %3, align 8, !tbaa !11
  %29 = getelementptr inbounds nuw %struct.UBiDi, ptr %28, i32 0, i32 1
  %30 = load ptr, ptr %29, align 8, !tbaa !65
  store ptr %30, ptr %2, align 8
  br label %32

31:                                               ; preds = %17, %12, %1
  store ptr null, ptr %2, align 8
  br label %32

32:                                               ; preds = %31, %27
  %33 = load ptr, ptr %2, align 8
  ret ptr %33
}